target datalayout = "e-m:e-p270:32:32-p271:32:32-p272:64:64-i64:64-i128:128-f80:128-n8:16:32:64-S128"
target triple = "x86_64-unknown-linux-gnu"

%"class.std::set.0" = type { %"class.std::_Rb_tree.1" }
%"class.std::_Rb_tree.1" = type { %"struct.std::_Rb_tree<QuantLib::Observer *, QuantLib::Observer *, std::_Identity<QuantLib::Observer *>, std::less<QuantLib::Observer *>>::_Rb_tree_impl" }
%"struct.std::_Rb_tree<QuantLib::Observer *, QuantLib::Observer *, std::_Identity<QuantLib::Observer *>, std::less<QuantLib::Observer *>>::_Rb_tree_impl" = type { [8 x i8], %"struct.std::_Rb_tree_header" }
%"struct.std::_Rb_tree_header" = type { %"struct.std::_Rb_tree_node_base", i64 }
%"struct.std::_Rb_tree_node_base" = type { i32, ptr, ptr, ptr }
%"class.std::set" = type { %"class.std::_Rb_tree" }
%"class.std::_Rb_tree" = type { %"struct.std::_Rb_tree<boost::shared_ptr<QuantLib::Observable>, boost::shared_ptr<QuantLib::Observable>, std::_Identity<boost::shared_ptr<QuantLib::Observable>>, std::less<boost::shared_ptr<QuantLib::Observable>>>::_Rb_tree_impl" }
%"struct.std::_Rb_tree<boost::shared_ptr<QuantLib::Observable>, boost::shared_ptr<QuantLib::Observable>, std::_Identity<boost::shared_ptr<QuantLib::Observable>>, std::less<boost::shared_ptr<QuantLib::Observable>>>::_Rb_tree_impl" = type { [8 x i8], %"struct.std::_Rb_tree_header" }
%"class.boost::detail::shared_count" = type { ptr }
%"class.QuantLib::Observable" = type { ptr, %"class.std::set.0" }
%"class.QuantLib::DayCounter" = type { %"class.boost::shared_ptr.18" }
%"class.boost::shared_ptr.18" = type { ptr, %"class.boost::detail::shared_count" }
%"class.QuantLib::SabrSmileSection" = type { %"class.QuantLib::SmileSection.base", double, double, double, double, double, double, %"class.QuantLib::Observable", %"class.QuantLib::Observer" }
%"class.QuantLib::SmileSection.base" = type { ptr, i8, %"class.QuantLib::Date", %"class.QuantLib::Date", %"class.QuantLib::DayCounter", double, i32, double }
%"class.QuantLib::Date" = type { i64 }
%"class.QuantLib::Observer" = type { ptr, %"class.std::set" }

; Function Attrs: mustprogress nounwind uwtable
define linkonce_odr void @_ZN5boost6detail12shared_countC2Ev(ptr noundef nonnull align 8 dereferenceable(8) %this) unnamed_addr #1 comdat align 2 {
entry:
  %this.addr = alloca ptr, align 8
  store ptr %this, ptr %this.addr, align 8, !tbaa !3
  %this1 = load ptr, ptr %this.addr, align 8
  %pi_ = getelementptr inbounds nuw %"class.boost::detail::shared_count", ptr %this1, i32 0, i32 0
  store ptr null, ptr %pi_, align 8, !tbaa !72
  ret void
}

; Function Attrs: mustprogress nounwind uwtable
define linkonce_odr void @_ZN5boost10shared_ptrIN8QuantLib10DayCounter4ImplEEC2Ev(ptr noundef nonnull align 8 dereferenceable(16) %this) unnamed_addr #1 comdat align 2 {
entry:
  %this.addr = alloca ptr, align 8
  store ptr %this, ptr %this.addr, align 8, !tbaa !3
  %this1 = load ptr, ptr %this.addr, align 8
  %px = getelementptr inbounds nuw %"class.boost::shared_ptr.18", ptr %this1, i32 0, i32 0
  store ptr null, ptr %px, align 8, !tbaa !73
  %pn = getelementptr inbounds nuw %"class.boost::shared_ptr.18", ptr %this1, i32 0, i32 1
  call void @_ZN5boost6detail12shared_countC2Ev(ptr noundef nonnull align 8 dereferenceable(8) %pn) #12
  ret void
}

; Function Attrs: mustprogress nounwind uwtable
define linkonce_odr void @_ZN8QuantLib10DayCounterC2Ev(ptr noundef nonnull align 8 dereferenceable(16) %this) unnamed_addr #1 comdat align 2 {
entry:
  %this.addr = alloca ptr, align 8
  store ptr %this, ptr %this.addr, align 8, !tbaa !3
  %this1 = load ptr, ptr %this.addr, align 8
  %impl_ = getelementptr inbounds nuw %"class.QuantLib::DayCounter", ptr %this1, i32 0, i32 0
  call void @_ZN5boost10shared_ptrIN8QuantLib10DayCounter4ImplEEC2Ev(ptr noundef nonnull align 8 dereferenceable(16) %impl_) #12
  ret void
}

; Function Attrs: mustprogress uwtable
define void @_ZN8QuantLib16SabrSmileSectionC2EddRKSt6vectorIdSaIdEEdNS_14VolatilityTypeE(ptr noundef nonnull align 8 dereferenceable(120) %this, ptr noundef %vtt, double noundef %timeToExpiry, double noundef %forward, ptr noundef nonnull align 8 dereferenceable(24) %sabrParams, double noundef %shift, i32 noundef %volatilityType) unnamed_addr #2 align 2 personality ptr @__gxx_personality_v0 {
entry:
  %this.addr = alloca ptr, align 8
  %vtt.addr = alloca ptr, align 8
  %timeToExpiry.addr = alloca double, align 8
  %forward.addr = alloca double, align 8
  %sabrParams.addr = alloca ptr, align 8
  %shift.addr = alloca double, align 8
  %volatilityType.addr = alloca i32, align 4
  %agg.tmp = alloca %"class.QuantLib::DayCounter", align 8
  %exn.slot = alloca ptr, align 8
  %ehselector.slot = alloca i32, align 4
  store ptr %this, ptr %this.addr, align 8, !tbaa !3
  store ptr %vtt, ptr %vtt.addr, align 8, !tbaa !3
  store double %timeToExpiry, ptr %timeToExpiry.addr, align 8, !tbaa !14
  store double %forward, ptr %forward.addr, align 8, !tbaa !14
  store ptr %sabrParams, ptr %sabrParams.addr, align 8, !tbaa !3
  store double %shift, ptr %shift.addr, align 8, !tbaa !14
  store i32 %volatilityType, ptr %volatilityType.addr, align 4, !tbaa !16
  %this1 = load ptr, ptr %this.addr, align 8
  %vtt2 = load ptr, ptr %vtt.addr, align 8
  %0 = load double, ptr %timeToExpiry.addr, align 8, !tbaa !14
  call void @llvm.memset.p0.i64(ptr align 8 %agg.tmp, i8 0, i64 16, i1 false)
  call void @_ZN8QuantLib10DayCounterC2Ev(ptr noundef nonnull align 8 dereferenceable(16) %agg.tmp) #12
  %1 = load i32, ptr %volatilityType.addr, align 4, !tbaa !16
  %2 = load double, ptr %shift.addr, align 8, !tbaa !14
  %3 = getelementptr inbounds ptr, ptr %vtt2, i64 1
  invoke void @_ZN8QuantLib12SmileSectionC2EdNS_10DayCounterENS_14VolatilityTypeEd(ptr noundef nonnull align 8 dereferenceable(72) %this1, ptr noundef %3, double noundef %0, ptr noundef %agg.tmp, i32 noundef %1, double noundef %2)
          to label %invoke.cont unwind label %lpad

invoke.cont:                                      ; preds = %entry
  call void @_ZN8QuantLib10DayCounterD2Ev(ptr noundef nonnull align 8 dereferenceable(16) %agg.tmp) #12
  %4 = load ptr, ptr %vtt2, align 8
  store ptr %4, ptr %this1, align 8, !tbaa !12
  %5 = getelementptr inbounds ptr, ptr %vtt2, i64 4
  %6 = load ptr, ptr %5, align 8
  %vtable = load ptr, ptr %this1, align 8, !tbaa !12
  %vbase.offset.ptr = getelementptr i8, ptr %vtable, i64 -24
  %vbase.offset = load i64, ptr %vbase.offset.ptr, align 8
  %add.ptr = getelementptr inbounds i8, ptr %this1, i64 %vbase.offset
  store ptr %6, ptr %add.ptr, align 8, !tbaa !12
  %7 = getelementptr inbounds ptr, ptr %vtt2, i64 5
  %8 = load ptr, ptr %7, align 8
  %vtable3 = load ptr, ptr %this1, align 8, !tbaa !12
  %vbase.offset.ptr4 = getelementptr i8, ptr %vtable3, i64 -32
  %vbase.offset5 = load i64, ptr %vbase.offset.ptr4, align 8
  %add.ptr6 = getelementptr inbounds i8, ptr %this1, i64 %vbase.offset5
  store ptr %8, ptr %add.ptr6, align 8, !tbaa !12
  %forward_ = getelementptr inbounds nuw %"class.QuantLib::SabrSmileSection", ptr %this1, i32 0, i32 5
  %9 = load double, ptr %forward.addr, align 8, !tbaa !14
  store double %9, ptr %forward_, align 8, !tbaa !18
  %shift_ = getelementptr inbounds nuw %"class.QuantLib::SabrSmileSection", ptr %this1, i32 0, i32 6
  %10 = load double, ptr %shift.addr, align 8, !tbaa !14
  store double %10, ptr %shift_, align 8, !tbaa !26
  %11 = load ptr, ptr %sabrParams.addr, align 8, !tbaa !3
  invoke void @_ZN8QuantLib16SabrSmileSection10initialiseERKSt6vectorIdSaIdEE(ptr noundef nonnull align 8 dereferenceable(120) %this1, ptr noundef nonnull align 8 dereferenceable(24) %11)
          to label %invoke.cont8 unwind label %lpad7

invoke.cont8:                                     ; preds = %invoke.cont
  ret void

lpad:                                             ; preds = %entry
  %12 = landingpad { ptr, i32 }
          cleanup
  %13 = extractvalue { ptr, i32 } %12, 0
  store ptr %13, ptr %exn.slot, align 8
  %14 = extractvalue { ptr, i32 } %12, 1
  store i32 %14, ptr %ehselector.slot, align 4
  call void @_ZN8QuantLib10DayCounterD2Ev(ptr noundef nonnull align 8 dereferenceable(16) %agg.tmp) #12
  br label %eh.resume

lpad7:                                            ; preds = %invoke.cont
  %15 = landingpad { ptr, i32 }
          cleanup
  %16 = extractvalue { ptr, i32 } %15, 0
  store ptr %16, ptr %exn.slot, align 8
  %17 = extractvalue { ptr, i32 } %15, 1
  store i32 %17, ptr %ehselector.slot, align 4
  %18 = getelementptr inbounds ptr, ptr %vtt2, i64 1
  call void @_ZN8QuantLib12SmileSectionD2Ev(ptr noundef nonnull align 8 dereferenceable(72) %this1, ptr noundef %18) #12
  br label %eh.resume

eh.resume:                                        ; preds = %lpad7, %lpad
  %exn = load ptr, ptr %exn.slot, align 8
  %sel = load i32, ptr %ehselector.slot, align 4
  %lpad.val = insertvalue { ptr, i32 } poison, ptr %exn, 0
  %lpad.val9 = insertvalue { ptr, i32 } %lpad.val, i32 %sel, 1
  resume { ptr, i32 } %lpad.val9
}