; Function Attrs: mustprogress uwtable
define void @_ZN8QuantLib16SabrSmileSectionC2EddRKSt6vectorIdSaIdEEdNS_14VolatilityTypeE(ptr noundef nonnull align 8 dereferenceable(120) %this, ptr noundef %vtt, double noundef %timeToExpiry, double noundef %forward, ptr nocapture noundef nonnull readonly align 8 dereferenceable(24) %sabrParams, double noundef %shift, i32 noundef %volatilityType) unnamed_addr #6 align 2 personality ptr @__gxx_personality_v0 {
entry:
  %agg.tmp = alloca %"class.QuantLib::DayCounter", align 8
  %0 = getelementptr inbounds i8, ptr %vtt, i64 8
  call void @llvm.memset.p0.i64(ptr noundef nonnull align 8 dereferenceable(16) %agg.tmp, i8 0, i64 16, i1 false)
  invoke void @_ZN8QuantLib12SmileSectionC2EdNS_10DayCounterENS_14VolatilityTypeEd(ptr noundef nonnull align 8 dereferenceable(72) %this, ptr noundef nonnull %0, double noundef %timeToExpiry, ptr noundef nonnull %agg.tmp, i32 noundef %volatilityType, double noundef %shift)
          to label %invoke.cont unwind label %lpad

invoke.cont:                                      ; preds = %entry
  %pn.i.i = getelementptr inbounds nuw i8, ptr %agg.tmp, i64 8
  %1 = load ptr, ptr %pn.i.i, align 8, !tbaa !37
  %cmp.not.i.i.i = icmp eq ptr %1, null
  br i1 %cmp.not.i.i.i, label %_ZN8QuantLib10DayCounterD2Ev.exit, label %if.then.i.i.i

if.then.i.i.i:                                    ; preds = %invoke.cont
  %use_count_.i.i.i.i = getelementptr inbounds nuw i8, ptr %1, i64 8
  %2 = atomicrmw sub ptr %use_count_.i.i.i.i, i32 1 acq_rel, align 4
  %cmp.i.i.i.i = icmp eq i32 %2, 1
  br i1 %cmp.i.i.i.i, label %if.then.i.i.i.i, label %_ZN8QuantLib10DayCounterD2Ev.exit

if.then.i.i.i.i:                                  ; preds = %if.then.i.i.i
  %vtable.i.i.i.i = load ptr, ptr %1, align 8, !tbaa !35
  %vfn.i.i.i.i = getelementptr inbounds i8, ptr %vtable.i.i.i.i, i64 16
  %3 = load ptr, ptr %vfn.i.i.i.i, align 8
  invoke void %3(ptr noundef nonnull align 8 dereferenceable(16) %1)
          to label %.noexc.i.i.i unwind label %terminate.lpad.i.i.i

.noexc.i.i.i:                                     ; preds = %if.then.i.i.i.i
  %weak_count_.i.i.i.i.i = getelementptr inbounds nuw i8, ptr %1, i64 12
  %4 = atomicrmw sub ptr %weak_count_.i.i.i.i.i, i32 1 acq_rel, align 4
  %cmp.i.i.i.i.i = icmp eq i32 %4, 1
  br i1 %cmp.i.i.i.i.i, label %if.then.i.i.i.i.i, label %_ZN8QuantLib10DayCounterD2Ev.exit

if.then.i.i.i.i.i:                                ; preds = %.noexc.i.i.i
  %vtable.i.i.i.i.i = load ptr, ptr %1, align 8, !tbaa !35
  %vfn.i.i.i.i.i = getelementptr inbounds i8, ptr %vtable.i.i.i.i.i, i64 24
  %5 = load ptr, ptr %vfn.i.i.i.i.i, align 8
  invoke void %5(ptr noundef nonnull align 8 dereferenceable(16) %1)
          to label %_ZN8QuantLib10DayCounterD2Ev.exit unwind label %terminate.lpad.i.i.i

terminate.lpad.i.i.i:                             ; preds = %if.then.i.i.i.i.i, %if.then.i.i.i.i
  %6 = landingpad { ptr, i32 }
          catch ptr null
  %7 = extractvalue { ptr, i32 } %6, 0
  call void @__clang_call_terminate(ptr %7) #23
  unreachable

_ZN8QuantLib10DayCounterD2Ev.exit:                ; preds = %invoke.cont, %if.then.i.i.i, %.noexc.i.i.i, %if.then.i.i.i.i.i
  %8 = load ptr, ptr %vtt, align 8
  store ptr %8, ptr %this, align 8, !tbaa !35
  %9 = getelementptr inbounds i8, ptr %vtt, i64 32
  %10 = load ptr, ptr %9, align 8
  %vbase.offset.ptr = getelementptr i8, ptr %8, i64 -24
  %vbase.offset = load i64, ptr %vbase.offset.ptr, align 8
  %add.ptr = getelementptr inbounds i8, ptr %this, i64 %vbase.offset
  store ptr %10, ptr %add.ptr, align 8, !tbaa !35
  %11 = getelementptr inbounds i8, ptr %vtt, i64 40
  %12 = load ptr, ptr %11, align 8
  %vtable3 = load ptr, ptr %this, align 8, !tbaa !35
  %vbase.offset.ptr4 = getelementptr i8, ptr %vtable3, i64 -32
  %vbase.offset5 = load i64, ptr %vbase.offset.ptr4, align 8
  %add.ptr6 = getelementptr inbounds i8, ptr %this, i64 %vbase.offset5
  store ptr %12, ptr %add.ptr6, align 8, !tbaa !35
  %forward_ = getelementptr inbounds nuw i8, ptr %this, i64 104
  store double %forward, ptr %forward_, align 8, !tbaa !39
  %shift_ = getelementptr inbounds nuw i8, ptr %this, i64 112
  store double %shift, ptr %shift_, align 8, !tbaa !47
  invoke void @_ZN8QuantLib16SabrSmileSection10initialiseERKSt6vectorIdSaIdEE(ptr noundef nonnull align 8 dereferenceable(120) %this, ptr noundef nonnull align 8 dereferenceable(24) %sabrParams)
          to label %invoke.cont8 unwind label %lpad7

invoke.cont8:                                     ; preds = %_ZN8QuantLib10DayCounterD2Ev.exit
  ret void

lpad:                                             ; preds = %entry
  %13 = landingpad { ptr, i32 }
          cleanup
  call void @_ZN8QuantLib10DayCounterD2Ev(ptr noundef nonnull align 8 dereferenceable(16) %agg.tmp) #22
  br label %eh.resume

lpad7:                                            ; preds = %_ZN8QuantLib10DayCounterD2Ev.exit
  %14 = landingpad { ptr, i32 }
          cleanup
  call void @_ZN8QuantLib12SmileSectionD2Ev(ptr noundef nonnull align 8 dereferenceable(72) %this, ptr noundef nonnull %0) #22
  br label %eh.resume

eh.resume:                                        ; preds = %lpad7, %lpad
  %.pn = phi { ptr, i32 } [ %14, %lpad7 ], [ %13, %lpad ]
  resume { ptr, i32 } %.pn
}